target datalayout = "e-m:e-p270:32:32-p271:32:32-p272:64:64-i64:64-i128:128-f80:128-n8:16:32:64-S128"
target triple = "x86_64-pc-linux-gnu"

%struct.UCharIterator = type { ptr, i32, i32, i32, i32, i32, ptr, ptr, ptr, ptr, ptr, ptr, ptr, ptr, ptr, ptr }

; Function Attrs: mustprogress uwtable
define internal noundef i32 @_ZL24characterIteratorCurrentP13UCharIterator(ptr noundef %0) #0 {
  %2 = alloca i32, align 4
  %3 = alloca ptr, align 8
  %4 = alloca i32, align 4
  %5 = alloca i32, align 4
  store ptr %0, ptr %3, align 8, !tbaa !3
  call void @llvm.lifetime.start.p0(i64 4, ptr %4) #8
  %6 = load ptr, ptr %3, align 8, !tbaa !3
  %7 = getelementptr inbounds nuw %struct.UCharIterator, ptr %6, i32 0, i32 0
  %8 = load ptr, ptr %7, align 8, !tbaa !14
  %9 = load ptr, ptr %8, align 8, !tbaa !27
  %10 = getelementptr inbounds ptr, ptr %9, i64 17
  %11 = load ptr, ptr %10, align 8
  %12 = call noundef zeroext i16 %11(ptr noundef nonnull align 8 dereferenceable(24) %8)
  %13 = zext i16 %12 to i32
  store i32 %13, ptr %4, align 4, !tbaa !10
  %14 = load i32, ptr %4, align 4, !tbaa !10
  %15 = icmp ne i32 %14, 65535
  br i1 %15, label %25, label %16

16:                                               ; preds = %1
  %17 = load ptr, ptr %3, align 8, !tbaa !3
  %18 = getelementptr inbounds nuw %struct.UCharIterator, ptr %17, i32 0, i32 0
  %19 = load ptr, ptr %18, align 8, !tbaa !14
  %20 = load ptr, ptr %19, align 8, !tbaa !27
  %21 = getelementptr inbounds ptr, ptr %20, i64 7
  %22 = load ptr, ptr %21, align 8
  %23 = call noundef signext i8 %22(ptr noundef nonnull align 8 dereferenceable(8) %19)
  %24 = icmp ne i8 %23, 0
  br i1 %24, label %25, label %27

25:                                               ; preds = %16, %1
  %26 = load i32, ptr %4, align 4, !tbaa !10
  store i32 %26, ptr %2, align 4
  store i32 1, ptr %5, align 4
  br label %28

27:                                               ; preds = %16
  store i32 -1, ptr %2, align 4
  store i32 1, ptr %5, align 4
  br label %28

28:                                               ; preds = %27, %25
  call void @llvm.lifetime.end.p0(i64 4, ptr %4) #8
  %29 = load i32, ptr %2, align 4
  ret i32 %29
}