; Function Attrs: mustprogress uwtable
define internal noundef range(i32 -1, 65536) i32 @_ZL24characterIteratorCurrentP13UCharIterator(ptr noundef readonly captures(none) %0) #0 {
  %2 = load ptr, ptr %0, align 8, !tbaa !10
  %3 = load ptr, ptr %2, align 8, !tbaa !17
  %4 = getelementptr inbounds nuw i8, ptr %3, i64 136
  %5 = load ptr, ptr %4, align 8
  %6 = tail call noundef zeroext i16 %5(ptr noundef nonnull align 8 dereferenceable(24) %2)
  %7 = zext i16 %6 to i32
  %.not = icmp eq i16 %6, -1
  br i1 %.not, label %8, label %14

8:                                                ; preds = %1
  %9 = load ptr, ptr %0, align 8, !tbaa !10
  %10 = load ptr, ptr %9, align 8, !tbaa !17
  %11 = getelementptr inbounds nuw i8, ptr %10, i64 56
  %12 = load ptr, ptr %11, align 8
  %13 = tail call noundef signext i8 %12(ptr noundef nonnull align 8 dereferenceable(8) %9)
  %.not4 = icmp eq i8 %13, 0
  %spec.select = select i1 %.not4, i32 -1, i32 %7
  br label %14

14:                                               ; preds = %8, %1
  %.0 = phi i32 [ %7, %1 ], [ %spec.select, %8 ]
  ret i32 %.0
}